target datalayout = "e-m:e-p270:32:32-p271:32:32-p272:64:64-i64:64-i128:128-f80:128-n8:16:32:64-S128"
target triple = "x86_64-pc-linux-gnu"

%"struct.jsonnet::internal::(anonymous namespace)::HeapEntity.base" = type <{ ptr, i8, i8 }>
%"struct.jsonnet::internal::(anonymous namespace)::HeapObject.base" = type { %"struct.jsonnet::internal::(anonymous namespace)::HeapEntity.base" }
%"struct.jsonnet::internal::(anonymous namespace)::HeapExtendedObject" = type { %"struct.jsonnet::internal::(anonymous namespace)::HeapObject.base", ptr, ptr }

@_ZTIN7jsonnet8internal12_GLOBAL__N_110HeapObjectE = internal constant { ptr, ptr, ptr } { ptr getelementptr inbounds (ptr, ptr @_ZTVN10__cxxabiv120__si_class_type_infoE, i64 2), ptr @_ZTSN7jsonnet8internal12_GLOBAL__N_110HeapObjectE, ptr @_ZTIN7jsonnet8internal12_GLOBAL__N_110HeapEntityE }, align 8

; Function Attrs: mustprogress uwtable
define internal noundef i32 @_ZN7jsonnet8internal12_GLOBAL__N_111Interpreter11countLeavesEPNS1_10HeapObjectE(ptr noundef nonnull align 8 dereferenceable(480) %0, ptr noundef %1) #4 align 2 {
  %3 = alloca i32, align 4
  %4 = alloca ptr, align 8
  %5 = alloca ptr, align 8
  %6 = alloca ptr, align 8
  %7 = alloca i32, align 4
  store ptr %0, ptr %4, align 8, !tbaa !36
  store ptr %1, ptr %5, align 8, !tbaa !173
  %8 = load ptr, ptr %4, align 8
  call void @llvm.lifetime.start.p0(i64 8, ptr %6) #3
  %9 = load ptr, ptr %5, align 8, !tbaa !173
  %10 = icmp eq ptr %9, null
  br i1 %10, label %13, label %11

11:                                               ; preds = %2
  %12 = call ptr @__dynamic_cast(ptr %9, ptr @_ZTIN7jsonnet8internal12_GLOBAL__N_110HeapObjectE, ptr @_ZTIN7jsonnet8internal12_GLOBAL__N_118HeapExtendedObjectE, i64 0) #3
  br label %14

13:                                               ; preds = %2
  br label %14

14:                                               ; preds = %13, %11
  %15 = phi ptr [ %12, %11 ], [ null, %13 ]
  store ptr %15, ptr %6, align 8, !tbaa !1051
  %16 = load ptr, ptr %6, align 8, !tbaa !1051
  %17 = icmp ne ptr %16, null
  br i1 %17, label %18, label %28

18:                                               ; preds = %14
  %19 = load ptr, ptr %6, align 8, !tbaa !1051
  %20 = getelementptr inbounds nuw %"struct.jsonnet::internal::(anonymous namespace)::HeapExtendedObject", ptr %19, i32 0, i32 1
  %21 = load ptr, ptr %20, align 8, !tbaa !1053
  %22 = call noundef i32 @_ZN7jsonnet8internal12_GLOBAL__N_111Interpreter11countLeavesEPNS1_10HeapObjectE(ptr noundef nonnull align 8 dereferenceable(480) %8, ptr noundef %21)
  %23 = load ptr, ptr %6, align 8, !tbaa !1051
  %24 = getelementptr inbounds nuw %"struct.jsonnet::internal::(anonymous namespace)::HeapExtendedObject", ptr %23, i32 0, i32 2
  %25 = load ptr, ptr %24, align 8, !tbaa !1056
  %26 = call noundef i32 @_ZN7jsonnet8internal12_GLOBAL__N_111Interpreter11countLeavesEPNS1_10HeapObjectE(ptr noundef nonnull align 8 dereferenceable(480) %8, ptr noundef %25)
  %27 = add i32 %22, %26
  store i32 %27, ptr %3, align 4
  store i32 1, ptr %7, align 4
  br label %29

28:                                               ; preds = %14
  store i32 1, ptr %3, align 4
  store i32 1, ptr %7, align 4
  br label %29

29:                                               ; preds = %28, %18
  call void @llvm.lifetime.end.p0(i64 8, ptr %6) #3
  %30 = load i32, ptr %3, align 4
  ret i32 %30
}