; Function Attrs: mustprogress nofree nounwind willreturn memory(read) uwtable
define internal fastcc noundef i32 @_ZN7jsonnet8internal12_GLOBAL__N_111Interpreter11countLeavesEPNS1_10HeapObjectE(ptr noundef readonly %0) unnamed_addr #20 align 2 {
  %2 = icmp eq ptr %0, null
  br i1 %2, label %.thread, label %.lr.ph

.lr.ph:                                           ; preds = %1, %tailrecurse
  %.tr3 = phi ptr [ %8, %tailrecurse ], [ %0, %1 ]
  %accumulator.tr2 = phi i32 [ %9, %tailrecurse ], [ 0, %1 ]
  %3 = tail call ptr @__dynamic_cast(ptr nonnull %.tr3, ptr nonnull @_ZTIN7jsonnet8internal12_GLOBAL__N_110HeapObjectE, ptr nonnull @_ZTIN7jsonnet8internal12_GLOBAL__N_118HeapExtendedObjectE, i64 0) #38
  %.not = icmp eq ptr %3, null
  br i1 %.not, label %.thread.loopexit, label %tailrecurse

tailrecurse:                                      ; preds = %.lr.ph
  %4 = getelementptr inbounds nuw i8, ptr %3, i64 16
  %5 = load ptr, ptr %4, align 8, !tbaa !330
  %6 = tail call fastcc noundef i32 @_ZN7jsonnet8internal12_GLOBAL__N_111Interpreter11countLeavesEPNS1_10HeapObjectE(ptr noundef %5)
  %7 = getelementptr inbounds nuw i8, ptr %3, i64 24
  %8 = load ptr, ptr %7, align 8, !tbaa !333
  %9 = add i32 %6, %accumulator.tr2
  %10 = icmp eq ptr %8, null
  br i1 %10, label %.thread.loopexit, label %.lr.ph

.thread.loopexit:                                 ; preds = %tailrecurse, %.lr.ph
  %accumulator.tr.lcssa.ph = phi i32 [ %accumulator.tr2, %.lr.ph ], [ %9, %tailrecurse ]
  %11 = add i32 %accumulator.tr.lcssa.ph, 1
  br label %.thread

.thread:                                          ; preds = %.thread.loopexit, %1
  %accumulator.tr.lcssa = phi i32 [ 1, %1 ], [ %11, %.thread.loopexit ]
  ret i32 %accumulator.tr.lcssa
}